; Function Attrs: mustprogress nounwind uwtable
define dso_local void @_ZN4node2fs13FSReqCallback13ResolveStatFsEPK11uv_statfs_s(ptr noundef nonnull align 8 dereferenceable(648) %this, ptr noundef %stat) unnamed_addr #3 align 2 {
entry:
  %binding_data_.i = getelementptr inbounds i8, ptr %this, i64 552
  %0 = load ptr, ptr %binding_data_.i, align 8
  %use_bigint_.i = getelementptr inbounds i8, ptr %this, i64 541
  %1 = load i8, ptr %use_bigint_.i, align 1
  %2 = and i8 %1, 1
  %tobool.i = icmp ne i8 %2, 0
  %call3 = tail call ptr @_ZN4node2fs21FillGlobalStatFsArrayEPNS0_11BindingDataEbPK11uv_statfs_s(ptr noundef %0, i1 noundef zeroext %tobool.i, ptr noundef %stat)
  tail call void @_ZN4node2fs13FSReqCallback7ResolveEN2v85LocalINS2_5ValueEEE(ptr noundef nonnull align 8 dereferenceable(648) %this, ptr %call3)
  ret void
}